target datalayout = "e-m:e-p270:32:32-p271:32:32-p272:64:64-i64:64-i128:128-f80:128-n8:16:32:64-S128"
target triple = "x86_64-pc-linux-gnu"

; Function Attrs: mustprogress nounwind uwtable
define noundef zeroext i1 @_ZN11CommandData8IsSwitchEi(ptr noundef nonnull align 8 dereferenceable(100904) %0, i32 noundef %1) #1 align 2 {
  %3 = alloca ptr, align 8
  %4 = alloca i32, align 4
  store ptr %0, ptr %3, align 8
  store i32 %1, ptr %4, align 4
  %5 = load i32, ptr %4, align 4
  %6 = icmp eq i32 %5, 45
  ret i1 %6
}

; Function Attrs: mustprogress uwtable
define internal noundef ptr @_ZL13AllocCmdParamPKwPPw(ptr noundef %0, ptr noundef %1) #0 {
  %3 = alloca ptr, align 8
  %4 = alloca ptr, align 8
  %5 = alloca ptr, align 8
  %6 = alloca ptr, align 8
  %7 = alloca i64, align 8
  store ptr %0, ptr %4, align 8
  store ptr %1, ptr %5, align 8
  %8 = load ptr, ptr %4, align 8
  %9 = call noundef ptr @_Z11GetCmdParamPKwPwm(ptr noundef %8, ptr noundef null, i64 noundef 0)
  store ptr %9, ptr %6, align 8
  %10 = load ptr, ptr %6, align 8
  %11 = icmp eq ptr %10, null
  br i1 %11, label %12, label %13

12:                                               ; preds = %2
  store ptr null, ptr %3, align 8
  br label %35

13:                                               ; preds = %2
  %14 = load ptr, ptr %6, align 8
  %15 = load ptr, ptr %4, align 8
  %16 = ptrtoint ptr %14 to i64
  %17 = ptrtoint ptr %15 to i64
  %18 = sub i64 %16, %17
  %19 = sdiv exact i64 %18, 4
  %20 = add nsw i64 %19, 2
  store i64 %20, ptr %7, align 8
  %21 = load i64, ptr %7, align 8
  %22 = mul i64 %21, 4
  %23 = call noalias ptr @malloc(i64 noundef %22) #13
  %24 = load ptr, ptr %5, align 8
  store ptr %23, ptr %24, align 8
  %25 = load ptr, ptr %5, align 8
  %26 = load ptr, ptr %25, align 8
  %27 = icmp eq ptr %26, null
  br i1 %27, label %28, label %29

28:                                               ; preds = %13
  store ptr null, ptr %3, align 8
  br label %35

29:                                               ; preds = %13
  %30 = load ptr, ptr %4, align 8
  %31 = load ptr, ptr %5, align 8
  %32 = load ptr, ptr %31, align 8
  %33 = load i64, ptr %7, align 8
  %34 = call noundef ptr @_Z11GetCmdParamPKwPwm(ptr noundef %30, ptr noundef %32, i64 noundef %33)
  store ptr %34, ptr %3, align 8
  br label %35

35:                                               ; preds = %29, %28, %12
  %36 = load ptr, ptr %3, align 8
  ret ptr %36
}

; Function Attrs: mustprogress uwtable
define void @_ZN11CommandData21ProcessSwitchesStringEPKw(ptr noundef nonnull align 8 dereferenceable(100904) %0, ptr noundef %1) #0 align 2 {
  %3 = alloca ptr, align 8
  %4 = alloca ptr, align 8
  %5 = alloca ptr, align 8
  store ptr %0, ptr %3, align 8
  store ptr %1, ptr %4, align 8
  %6 = load ptr, ptr %3, align 8
  br label %7

7:                                                ; preds = %18, %2
  %8 = load ptr, ptr %4, align 8
  %9 = call noundef ptr @_ZL13AllocCmdParamPKwPPw(ptr noundef %8, ptr noundef %5)
  store ptr %9, ptr %4, align 8
  %10 = icmp ne ptr %9, null
  br i1 %10, label %11, label %20

11:                                               ; preds = %7
  %12 = load ptr, ptr %5, align 8
  %13 = load i32, ptr %12, align 4
  %14 = call noundef zeroext i1 @_ZN11CommandData8IsSwitchEi(ptr noundef nonnull align 8 dereferenceable(100904) %6, i32 noundef %13)
  br i1 %14, label %15, label %18

15:                                               ; preds = %11
  %16 = load ptr, ptr %5, align 8
  %17 = getelementptr inbounds i32, ptr %16, i64 1
  call void @_ZN11CommandData13ProcessSwitchEPKw(ptr noundef nonnull align 8 dereferenceable(100904) %6, ptr noundef %17)
  br label %18

18:                                               ; preds = %15, %11
  %19 = load ptr, ptr %5, align 8
  call void @free(ptr noundef %19) #11
  br label %7, !llvm.loop !18

20:                                               ; preds = %7
  ret void
}