; Function Attrs: mustprogress uwtable
define void @_ZN11CommandData21ProcessSwitchesStringEPKw(ptr noundef nonnull align 8 dereferenceable(100904) %0, ptr noundef %1) local_unnamed_addr #0 align 2 {
  %3 = tail call noundef ptr @_Z11GetCmdParamPKwPwm(ptr noundef %1, ptr noundef null, i64 noundef 0)
  %4 = icmp eq ptr %3, null
  br i1 %4, label %_ZL13AllocCmdParamPKwPPw.exit.thread, label %.lr.ph

.lr.ph:                                           ; preds = %2, %20
  %5 = phi ptr [ %21, %20 ], [ %3, %2 ]
  %.09 = phi ptr [ %14, %20 ], [ %1, %2 ]
  %6 = ptrtoint ptr %5 to i64
  %7 = ptrtoint ptr %.09 to i64
  %8 = sub i64 %6, %7
  %9 = ashr exact i64 %8, 2
  %10 = add nsw i64 %9, 2
  %11 = shl i64 %10, 2
  %12 = tail call noalias ptr @malloc(i64 noundef %11) #20
  %13 = icmp eq ptr %12, null
  br i1 %13, label %_ZL13AllocCmdParamPKwPPw.exit.thread, label %_ZL13AllocCmdParamPKwPPw.exit

_ZL13AllocCmdParamPKwPPw.exit:                    ; preds = %.lr.ph
  %14 = tail call noundef ptr @_Z11GetCmdParamPKwPwm(ptr noundef %.09, ptr noundef nonnull %12, i64 noundef %10)
  %.not = icmp eq ptr %14, null
  br i1 %.not, label %_ZL13AllocCmdParamPKwPPw.exit.thread, label %15

15:                                               ; preds = %_ZL13AllocCmdParamPKwPPw.exit
  %16 = load i32, ptr %12, align 4
  %17 = icmp eq i32 %16, 45
  br i1 %17, label %18, label %20

18:                                               ; preds = %15
  %19 = getelementptr inbounds nuw i8, ptr %12, i64 4
  tail call void @_ZN11CommandData13ProcessSwitchEPKw(ptr noundef nonnull align 8 dereferenceable(100904) %0, ptr noundef nonnull %19)
  br label %20

20:                                               ; preds = %18, %15
  tail call void @free(ptr noundef nonnull %12) #18
  %21 = tail call noundef ptr @_Z11GetCmdParamPKwPwm(ptr noundef nonnull %14, ptr noundef null, i64 noundef 0)
  %22 = icmp eq ptr %21, null
  br i1 %22, label %_ZL13AllocCmdParamPKwPPw.exit.thread, label %.lr.ph, !llvm.loop !19

_ZL13AllocCmdParamPKwPPw.exit.thread:             ; preds = %_ZL13AllocCmdParamPKwPPw.exit, %20, %.lr.ph, %2
  ret void
}